(dp0
S'parameterArray'
p1
(lp2
(dp3
S'RT'
p4
I-1
sS'confidence'
p5
I-1
sS'disc_stim'
p6
cnumpy.core.multiarray
scalar
p7
(cnumpy
dtype
p8
(S'i8'
p9
I0
I1
tp10
Rp11
(I3
S'<'
p12
NNNI-1
I-1
I0
tp13
bS'\x02\x00\x00\x00\x00\x00\x00\x00'
p14
tp15
Rp16
sS'signal_volume'
p17
F0.0263084249654
sS'signal_present'
p18
g7
(g11
S'\x01\x00\x00\x00\x00\x00\x00\x00'
p19
tp20
Rp21
sS'answer'
p22
I-1
sS'miniblock'
p23
I0
sS'correct'
p24
I-1
sS'block'
p25
g7
(g8
(S'f8'
p26
I0
I1
tp27
Rp28
(I3
S'<'
p29
NNNI-1
I-1
I0
tp30
bS'\x00\x00\x00\x00\x00\x00\x00\x00'
p31
tp32
Rp33
sa(dp34
g4
I-1
sg5
I-1
sg6
g7
(g11
S'\x02\x00\x00\x00\x00\x00\x00\x00'
p35
tp36
Rp37
sg17
F0.0263084249654
sg18
g7
(g11
S'\x01\x00\x00\x00\x00\x00\x00\x00'
p38
tp39
Rp40
sg22
I-1
sg23
I0
sg24
I-1
sg25
g7
(g28
S'\x00\x00\x00\x00\x00\x00\x00\x00'
p41
tp42
Rp43
sa(dp44
g4
I-1
sg5
I-1
sg6
g7
(g11
S'\x02\x00\x00\x00\x00\x00\x00\x00'
p45
tp46
Rp47
sg17
F0.0263084249654
sg18
g7
(g11
S'\x01\x00\x00\x00\x00\x00\x00\x00'
p48
tp49
Rp50
sg22
I-1
sg23
I0
sg24
I-1
sg25
g7
(g28
S'\x00\x00\x00\x00\x00\x00\x00\x00'
p51
tp52
Rp53
sa(dp54
g4
I-1
sg5
I-1
sg6
g7
(g11
S'\x01\x00\x00\x00\x00\x00\x00\x00'
p55
tp56
Rp57
sg17
F0.0263084249654
sg18
g7
(g11
S'\x00\x00\x00\x00\x00\x00\x00\x00'
p58
tp59
Rp60
sg22
I-1
sg23
I0
sg24
I-1
sg25
g7
(g28
S'\x00\x00\x00\x00\x00\x00\x00\x00'
p61
tp62
Rp63
sa(dp64
g4
I-1
sg5
I-1
sg6
g7
(g11
S'\x01\x00\x00\x00\x00\x00\x00\x00'
p65
tp66
Rp67
sg17
F0.0263084249654
sg18
g7
(g11
S'\x00\x00\x00\x00\x00\x00\x00\x00'
p68
tp69
Rp70
sg22
I-1
sg23
I0
sg24
I-1
sg25
g7
(g28
S'\x00\x00\x00\x00\x00\x00\x00\x00'
p71
tp72
Rp73
sasS'eventArray'
p74
(lp75
(lp76
S'trial 0 started at 1563192257.68'
p77
aS'trial 0 phase 1 started at 1563192270.45'
p78
aS'trial 0 phase 2 started at 1563192270.46'
p79
aS'trial 0 phase 3 started at 1563192270.98'
p80
aS'trial 0 phase 4 started at 1563192272.48'
p81
aa(lp82
S'trial 1 started at 1563192274.69'
p83
aS'trial 1 phase 1 started at 1563192274.69'
p84
aS'trial 1 phase 2 started at 1563192275.3'
p85
aS'trial 1 phase 3 started at 1563192275.8'
p86
aS'trial 1 phase 4 started at 1563192277.32'
p87
aa(lp88
S'trial 2 started at 1563192279.52'
p89
aS'trial 2 phase 1 started at 1563192279.52'
p90
aS'trial 2 phase 2 started at 1563192280.13'
p91
aS'trial 2 phase 3 started at 1563192280.63'
p92
aS'trial 2 phase 4 started at 1563192282.14'
p93
aa(lp94
S'trial 3 started at 1563192283.83'
p95
aS'trial 3 phase 1 started at 1563192283.83'
p96
aS'trial 3 phase 2 started at 1563192284.44'
p97
aS'trial 3 phase 3 started at 1563192284.95'
p98
aS'trial 3 phase 4 started at 1563192286.47'
p99
aa(lp100
S'trial 4 started at 1563192288.67'
p101
aS'trial 4 phase 1 started at 1563192288.67'
p102
aS'trial 4 phase 2 started at 1563192289.29'
p103
aS'trial 4 phase 3 started at 1563192289.79'
p104
a(lp105
I-99
aF1.1492359638214111
aaS"trial 4 event <module 'psychopy.event' from '/Users/lolabeerendonk/anaconda2/envs/e2/lib/python2.7/site-packages/psychopy/event.pyc'> at 1563192289.82"
p106
aas.(dp0
S'parameterArray'
p1
(lp2
(dp3
S'RT'
p4
I-1
sS'confidence'
p5
I-1
sS'disc_stim'
p6
cnumpy.core.multiarray
scalar
p7
(cnumpy
dtype
p8
(S'i8'
p9
I0
I1
tp10
Rp11
(I3
S'<'
p12
NNNI-1
I-1
I0
tp13
bS'\x02\x00\x00\x00\x00\x00\x00\x00'
p14
tp15
Rp16
sS'signal_volume'
p17
F0.0263084249654
sS'signal_present'
p18
g7
(g11
S'\x01\x00\x00\x00\x00\x00\x00\x00'
p19
tp20
Rp21
sS'answer'
p22
I-1
sS'miniblock'
p23
I0
sS'correct'
p24
I-1
sS'block'
p25
g7
(g8
(S'f8'
p26
I0
I1
tp27
Rp28
(I3
S'<'
p29
NNNI-1
I-1
I0
tp30
bS'\x00\x00\x00\x00\x00\x00\x00\x00'
p31
tp32
Rp33
sa(dp34
g4
I-1
sg5
I-1
sg6
g7
(g11
S'\x02\x00\x00\x00\x00\x00\x00\x00'
p35
tp36
Rp37
sg17
F0.0263084249654
sg18
g7
(g11
S'\x01\x00\x00\x00\x00\x00\x00\x00'
p38
tp39
Rp40
sg22
I-1
sg23
I0
sg24
I-1
sg25
g7
(g28
S'\x00\x00\x00\x00\x00\x00\x00\x00'
p41
tp42
Rp43
sa(dp44
g4
I-1
sg5
I-1
sg6
g7
(g11
S'\x02\x00\x00\x00\x00\x00\x00\x00'
p45
tp46
Rp47
sg17
F0.0263084249654
sg18
g7
(g11
S'\x01\x00\x00\x00\x00\x00\x00\x00'
p48
tp49
Rp50
sg22
I-1
sg23
I0
sg24
I-1
sg25
g7
(g28
S'\x00\x00\x00\x00\x00\x00\x00\x00'
p51
tp52
Rp53
sa(dp54
g4
I-1
sg5
I-1
sg6
g7
(g11
S'\x01\x00\x00\x00\x00\x00\x00\x00'
p55
tp56
Rp57
sg17
F0.0263084249654
sg18
g7
(g11
S'\x00\x00\x00\x00\x00\x00\x00\x00'
p58
tp59
Rp60
sg22
I-1
sg23
I0
sg24
I-1
sg25
g7
(g28
S'\x00\x00\x00\x00\x00\x00\x00\x00'
p61
tp62
Rp63
sa(dp64
g4
I-1
sg5
I-1
sg6
g7
(g11
S'\x01\x00\x00\x00\x00\x00\x00\x00'
p65
tp66
Rp67
sg17
F0.0263084249654
sg18
g7
(g11
S'\x00\x00\x00\x00\x00\x00\x00\x00'
p68
tp69
Rp70
sg22
I-1
sg23
I0
sg24
I-1
sg25
g7
(g28
S'\x00\x00\x00\x00\x00\x00\x00\x00'
p71
tp72
Rp73
sasS'eventArray'
p74
(lp75
(lp76
S'trial 0 started at 1563192257.68'
p77
aS'trial 0 phase 1 started at 1563192270.45'
p78
aS'trial 0 phase 2 started at 1563192270.46'
p79
aS'trial 0 phase 3 started at 1563192270.98'
p80
aS'trial 0 phase 4 started at 1563192272.48'
p81
aa(lp82
S'trial 1 started at 1563192274.69'
p83
aS'trial 1 phase 1 started at 1563192274.69'
p84
aS'trial 1 phase 2 started at 1563192275.3'
p85
aS'trial 1 phase 3 started at 1563192275.8'
p86
aS'trial 1 phase 4 started at 1563192277.32'
p87
aa(lp88
S'trial 2 started at 1563192279.52'
p89
aS'trial 2 phase 1 started at 1563192279.52'
p90
aS'trial 2 phase 2 started at 1563192280.13'
p91
aS'trial 2 phase 3 started at 1563192280.63'
p92
aS'trial 2 phase 4 started at 1563192282.14'
p93
aa(lp94
S'trial 3 started at 1563192283.83'
p95
aS'trial 3 phase 1 started at 1563192283.83'
p96
aS'trial 3 phase 2 started at 1563192284.44'
p97
aS'trial 3 phase 3 started at 1563192284.95'
p98
aS'trial 3 phase 4 started at 1563192286.47'
p99
aa(lp100
S'trial 4 started at 1563192288.67'
p101
aS'trial 4 phase 1 started at 1563192288.67'
p102
aS'trial 4 phase 2 started at 1563192289.29'
p103
aS'trial 4 phase 3 started at 1563192289.79'
p104
a(lp105
I-99
aF1.1492359638214111
aaS"trial 4 event <module 'psychopy.event' from '/Users/lolabeerendonk/anaconda2/envs/e2/lib/python2.7/site-packages/psychopy/event.pyc'> at 1563192289.82"
p106
aas.