(dp0
S'parameterArray'
p1
(lp2
(dp3
S'RT'
p4
I-1
sS'confidence'
p5
I-1
sS'disc_stim'
p6
cnumpy.core.multiarray
scalar
p7
(cnumpy
dtype
p8
(S'i8'
p9
I0
I1
tp10
Rp11
(I3
S'<'
p12
NNNI-1
I-1
I0
tp13
bS'\x01\x00\x00\x00\x00\x00\x00\x00'
p14
tp15
Rp16
sS'signal_volume'
p17
F0.3
sS'signal_present'
p18
g7
(g11
S'\x00\x00\x00\x00\x00\x00\x00\x00'
p19
tp20
Rp21
sS'answer'
p22
I-1
sS'miniblock'
p23
I1
sS'correct'
p24
I-1
sS'block'
p25
g7
(g8
(S'f8'
p26
I0
I1
tp27
Rp28
(I3
S'<'
p29
NNNI-1
I-1
I0
tp30
bS'\x00\x00\x00\x00\x00\x00\x00\x00'
p31
tp32
Rp33
sasS'eventArray'
p34
(lp35
(lp36
S'trial 0 started at 1563192229.91'
p37
aS'trial 0 phase 1 started at 1563192249.3'
p38
aS'trial 0 phase 2 started at 1563192249.31'
p39
aS'trial 0 phase 3 started at 1563192249.81'
p40
a(lp41
I-99
aF22.212608814239502
aaS"trial 0 event <module 'psychopy.event' from '/Users/lolabeerendonk/anaconda2/envs/e2/lib/python2.7/site-packages/psychopy/event.pyc'> at 1563192252.12"
p42
aas.