(dp0
S'parameterArray'
p1
(lp2
(dp3
S'RT'
p4
F13.241821050643921
sS'confidence'
p5
I1
sS'disc_stim'
p6
cnumpy.core.multiarray
scalar
p7
(cnumpy
dtype
p8
(S'i8'
p9
I0
I1
tp10
Rp11
(I3
S'<'
p12
NNNI-1
I-1
I0
tp13
bS'\x02\x00\x00\x00\x00\x00\x00\x00'
p14
tp15
Rp16
sS'signal_volume'
p17
F0.3
sS'signal_present'
p18
g7
(g11
S'\x01\x00\x00\x00\x00\x00\x00\x00'
p19
tp20
Rp21
sS'answer'
p22
I1
sS'miniblock'
p23
I1
sS'correct'
p24
I1
sS'block'
p25
g7
(g8
(S'f8'
p26
I0
I1
tp27
Rp28
(I3
S'<'
p29
NNNI-1
I-1
I0
tp30
bS'\x00\x00\x00\x00\x00\x00\x00\x00'
p31
tp32
Rp33
sa(dp34
g4
F17.18561601638794
sg5
I1
sg6
g7
(g11
S'\x02\x00\x00\x00\x00\x00\x00\x00'
p35
tp36
Rp37
sg17
F0.2833333333333333
sg18
g7
(g11
S'\x01\x00\x00\x00\x00\x00\x00\x00'
p38
tp39
Rp40
sg22
I0
sg23
I1
sg24
I0
sg25
g7
(g28
S'\x00\x00\x00\x00\x00\x00\x00\x00'
p41
tp42
Rp43
sa(dp44
g4
I-1
sg5
I-1
sg6
g7
(g11
S'\x02\x00\x00\x00\x00\x00\x00\x00'
p45
tp46
Rp47
sg17
F0.3333333333333333
sg18
g7
(g11
S'\x01\x00\x00\x00\x00\x00\x00\x00'
p48
tp49
Rp50
sg22
I-1
sg23
I1
sg24
I-1
sg25
g7
(g28
S'\x00\x00\x00\x00\x00\x00\x00\x00'
p51
tp52
Rp53
sasS'eventArray'
p54
(lp55
(lp56
S'trial 0 started at 1563192093.71'
p57
aS'trial 0 phase 1 started at 1563192114.11'
p58
aS'trial 0 phase 2 started at 1563192114.12'
p59
aS'trial 0 phase 3 started at 1563192114.62'
p60
a(lp61
I1
aF34.15639901161194
aaS'trial 0 phase 4 started at 1563192127.87'
p62
aS"trial 0 event <module 'psychopy.event' from '/Users/lolabeerendonk/anaconda2/envs/e2/lib/python2.7/site-packages/psychopy/event.pyc'> at 1563192127.87"
p63
aa(lp64
S'trial 1 started at 1563192129.13'
p65
aS'trial 1 phase 1 started at 1563192129.13'
p66
aS'trial 1 phase 2 started at 1563192129.73'
p67
aS'trial 1 phase 3 started at 1563192130.25'
p68
a(lp69
I1
aF18.30698585510254
aaS'trial 1 phase 4 started at 1563192147.43'
p70
aS"trial 1 event <module 'psychopy.event' from '/Users/lolabeerendonk/anaconda2/envs/e2/lib/python2.7/site-packages/psychopy/event.pyc'> at 1563192147.43"
p71
aa(lp72
S'trial 2 started at 1563192149.35'
p73
aS'trial 2 phase 1 started at 1563192149.35'
p74
aS'trial 2 phase 2 started at 1563192149.95'
p75
aS'trial 2 phase 3 started at 1563192150.45'
p76
a(lp77
I-99
aF3.7687928676605225
aaS"trial 2 event <module 'psychopy.event' from '/Users/lolabeerendonk/anaconda2/envs/e2/lib/python2.7/site-packages/psychopy/event.pyc'> at 1563192153.12"
p78
aas.